target datalayout = "e-m:e-p270:32:32-p271:32:32-p272:64:64-i64:64-i128:128-f80:128-n8:16:32:64-S128"
target triple = "x86_64-pc-linux-gnu"

@secure_mem_initialized = internal global i32 0, align 4

; Function Attrs: nounwind uwtable
define noalias ptr @CRYPTO_secure_zalloc(i64 noundef %0, ptr noundef %1, i32 noundef %2) #0 {
  %4 = alloca ptr, align 8
  %5 = alloca i64, align 8
  %6 = alloca ptr, align 8
  %7 = alloca i32, align 4
  store i64 %0, ptr %5, align 8, !tbaa !3
  store ptr %1, ptr %6, align 8, !tbaa !26
  store i32 %2, ptr %7, align 4, !tbaa !7
  %8 = load i32, ptr @secure_mem_initialized, align 4, !tbaa !7
  %9 = icmp ne i32 %8, 0
  br i1 %9, label %10, label %15

10:                                               ; preds = %3
  %11 = load i64, ptr %5, align 8, !tbaa !3
  %12 = load ptr, ptr %6, align 8, !tbaa !26
  %13 = load i32, ptr %7, align 4, !tbaa !7
  %14 = call noalias ptr @CRYPTO_secure_malloc(i64 noundef %11, ptr noundef %12, i32 noundef %13)
  store ptr %14, ptr %4, align 8
  br label %20

15:                                               ; preds = %3
  %16 = load i64, ptr %5, align 8, !tbaa !3
  %17 = load ptr, ptr %6, align 8, !tbaa !26
  %18 = load i32, ptr %7, align 4, !tbaa !7
  %19 = call noalias ptr @CRYPTO_zalloc(i64 noundef %16, ptr noundef %17, i32 noundef %18)
  store ptr %19, ptr %4, align 8
  br label %20

20:                                               ; preds = %15, %10
  %21 = load ptr, ptr %4, align 8
  ret ptr %21
}