; Function Attrs: nounwind uwtable
define noalias ptr @CRYPTO_secure_zalloc(i64 noundef %0, ptr noundef %1, i32 noundef %2) local_unnamed_addr #0 {
  %.b = load i1, ptr @secure_mem_initialized, align 4
  br i1 %.b, label %4, label %6

4:                                                ; preds = %3
  %5 = tail call noalias ptr @CRYPTO_secure_malloc(i64 noundef %0, ptr noundef %1, i32 noundef %2)
  br label %8

6:                                                ; preds = %3
  %7 = tail call noalias ptr @CRYPTO_zalloc(i64 noundef %0, ptr noundef %1, i32 noundef %2) #8
  br label %8

8:                                                ; preds = %6, %4
  %.0 = phi ptr [ %5, %4 ], [ %7, %6 ]
  ret ptr %.0
}